; Function Attrs: nounwind uwtable
define internal void @__cxx_global_array_dtor(ptr nocapture readnone %0) #18 section ".text.startup" personality ptr @__gxx_personality_v0 {
  br label %2

2:                                                ; preds = %_ZNSt4pairIN3nix11SandboxModeEN8nlohmann10basic_jsonISt3mapSt6vectorNSt7__cxx1112basic_stringIcSt11char_traitsIcESaIcEEEblmdSaNS2_14adl_serializerES5_IhSaIhEEEEED2Ev.exit, %1
  %3 = phi ptr [ getelementptr inbounds ([3 x %"struct.std::pair.343"], ptr @_ZZN3nix7to_jsonIN8nlohmann10basic_jsonISt3mapSt6vectorNSt7__cxx1112basic_stringIcSt11char_traitsIcESaIcEEEblmdSaNS1_14adl_serializerES4_IhSaIhEEEEEEvRT_RKNS_11SandboxModeEE1mB5cxx11, i64 1, i64 0), %1 ], [ %10, %_ZNSt4pairIN3nix11SandboxModeEN8nlohmann10basic_jsonISt3mapSt6vectorNSt7__cxx1112basic_stringIcSt11char_traitsIcESaIcEEEblmdSaNS2_14adl_serializerES5_IhSaIhEEEEED2Ev.exit ]
  %4 = getelementptr inbounds i8, ptr %3, i64 -16
  %5 = getelementptr inbounds i8, ptr %3, i64 -8
  %6 = load i8, ptr %4, align 8
  invoke void @_ZN8nlohmann10basic_jsonISt3mapSt6vectorNSt7__cxx1112basic_stringIcSt11char_traitsIcESaIcEEEblmdSaNS_14adl_serializerES2_IhSaIhEEE10json_value7destroyENS_6detail7value_tE(ptr noundef nonnull align 8 dereferenceable(8) %5, i8 noundef zeroext %6) #34
          to label %_ZNSt4pairIN3nix11SandboxModeEN8nlohmann10basic_jsonISt3mapSt6vectorNSt7__cxx1112basic_stringIcSt11char_traitsIcESaIcEEEblmdSaNS2_14adl_serializerES5_IhSaIhEEEEED2Ev.exit unwind label %7

7:                                                ; preds = %2
  %8 = landingpad { ptr, i32 }
          catch ptr null
  %9 = extractvalue { ptr, i32 } %8, 0
  tail call void @__clang_call_terminate(ptr %9) #30
  unreachable

_ZNSt4pairIN3nix11SandboxModeEN8nlohmann10basic_jsonISt3mapSt6vectorNSt7__cxx1112basic_stringIcSt11char_traitsIcESaIcEEEblmdSaNS2_14adl_serializerES5_IhSaIhEEEEED2Ev.exit: ; preds = %2
  %10 = getelementptr inbounds i8, ptr %3, i64 -24
  %11 = icmp eq ptr %10, @_ZZN3nix7to_jsonIN8nlohmann10basic_jsonISt3mapSt6vectorNSt7__cxx1112basic_stringIcSt11char_traitsIcESaIcEEEblmdSaNS1_14adl_serializerES4_IhSaIhEEEEEEvRT_RKNS_11SandboxModeEE1mB5cxx11
  br i1 %11, label %12, label %2

12:                                               ; preds = %_ZNSt4pairIN3nix11SandboxModeEN8nlohmann10basic_jsonISt3mapSt6vectorNSt7__cxx1112basic_stringIcSt11char_traitsIcESaIcEEEblmdSaNS2_14adl_serializerES5_IhSaIhEEEEED2Ev.exit
  ret void
}